target datalayout = "e-m:e-p270:32:32-p271:32:32-p272:64:64-i64:64-i128:128-f80:128-n8:16:32:64-S128"
target triple = "x86_64-pc-linux-gnu"

%"struct.std::_Vector_base" = type { %"struct.std::_Vector_base<unsigned char *, std::allocator<unsigned char *>>::_Vector_impl" }
%"struct.std::_Vector_base<unsigned char *, std::allocator<unsigned char *>>::_Vector_impl" = type { %"struct.std::_Vector_base<unsigned char *, std::allocator<unsigned char *>>::_Vector_impl_data" }
%"struct.std::_Vector_base<unsigned char *, std::allocator<unsigned char *>>::_Vector_impl_data" = type { ptr, ptr, ptr }
%"class.cv::Range" = type { i32, i32 }
%class.anon = type { ptr, ptr, ptr, ptr, ptr, ptr, ptr }

; Function Attrs: mustprogress nounwind uwtable
define linkonce_odr hidden noundef nonnull align 8 dereferenceable(8) ptr @_ZNSt6vectorIPhSaIS0_EEixEm(ptr noundef nonnull align 8 dereferenceable(24) %0, i64 noundef %1) #4 comdat align 2 {
  %3 = alloca ptr, align 8
  %4 = alloca i64, align 8
  store ptr %0, ptr %3, align 8, !tbaa !25
  store i64 %1, ptr %4, align 8, !tbaa !46
  %5 = load ptr, ptr %3, align 8
  %6 = getelementptr inbounds nuw %"struct.std::_Vector_base", ptr %5, i32 0, i32 0
  %7 = getelementptr inbounds nuw %"struct.std::_Vector_base<unsigned char *, std::allocator<unsigned char *>>::_Vector_impl_data", ptr %6, i32 0, i32 0
  %8 = load ptr, ptr %7, align 8, !tbaa !27
  %9 = load i64, ptr %4, align 8, !tbaa !46
  %10 = getelementptr inbounds nuw ptr, ptr %8, i64 %9
  ret ptr %10
}

; Function Attrs: mustprogress nounwind uwtable
define linkonce_odr hidden noundef nonnull align 8 dereferenceable(8) ptr @_ZNKSt6vectorIPhSaIS0_EEixEm(ptr noundef nonnull align 8 dereferenceable(24) %0, i64 noundef %1) #4 comdat align 2 {
  %3 = alloca ptr, align 8
  %4 = alloca i64, align 8
  store ptr %0, ptr %3, align 8, !tbaa !25
  store i64 %1, ptr %4, align 8, !tbaa !46
  %5 = load ptr, ptr %3, align 8
  %6 = getelementptr inbounds nuw %"struct.std::_Vector_base", ptr %5, i32 0, i32 0
  %7 = getelementptr inbounds nuw %"struct.std::_Vector_base<unsigned char *, std::allocator<unsigned char *>>::_Vector_impl_data", ptr %6, i32 0, i32 0
  %8 = load ptr, ptr %7, align 8, !tbaa !27
  %9 = load i64, ptr %4, align 8, !tbaa !46
  %10 = getelementptr inbounds nuw ptr, ptr %8, i64 %9
  ret ptr %10
}

; Function Attrs: inlinehint mustprogress nounwind uwtable
define internal void @"_ZZN2cv10PngDecoder13compose_frameERSt6vectorIPhSaIS2_EERKS4_hjjjjRNS_3MatEENK3$_0clERKNS_5RangeE"(ptr noundef nonnull align 8 dereferenceable(56) %0, ptr noundef nonnull align 4 dereferenceable(8) %1) #7 align 2 {
  %3 = alloca ptr, align 8
  %4 = alloca ptr, align 8
  %5 = alloca i32, align 4
  %6 = alloca i32, align 4
  %7 = alloca ptr, align 8
  %8 = alloca ptr, align 8
  %9 = alloca i32, align 4
  %10 = alloca i32, align 4
  %11 = alloca i32, align 4
  %12 = alloca i32, align 4
  store ptr %0, ptr %3, align 8, !tbaa !49
  store ptr %1, ptr %4, align 8, !tbaa !191
  %13 = load ptr, ptr %3, align 8
  call void @llvm.lifetime.start.p0(i64 4, ptr %5) #3
  %14 = load ptr, ptr %4, align 8, !tbaa !191
  %15 = getelementptr inbounds nuw %"class.cv::Range", ptr %14, i32 0, i32 0
  %16 = load i32, ptr %15, align 4, !tbaa !195
  store i32 %16, ptr %5, align 4, !tbaa !31
  br label %17

17:                                               ; preds = %207, %2
  %18 = load i32, ptr %5, align 4, !tbaa !31
  %19 = load ptr, ptr %4, align 8, !tbaa !191
  %20 = getelementptr inbounds nuw %"class.cv::Range", ptr %19, i32 0, i32 1
  %21 = load i32, ptr %20, align 4, !tbaa !197
  %22 = icmp slt i32 %18, %21
  br i1 %22, label %24, label %23

23:                                               ; preds = %17
  store i32 2, ptr %6, align 4
  call void @llvm.lifetime.end.p0(i64 4, ptr %5) #3
  br label %210

24:                                               ; preds = %17
  call void @llvm.lifetime.start.p0(i64 8, ptr %7) #3
  %25 = getelementptr inbounds nuw %class.anon, ptr %13, i32 0, i32 0
  %26 = load ptr, ptr %25, align 8, !tbaa !514
  %27 = load i32, ptr %5, align 4, !tbaa !31
  %28 = sext i32 %27 to i64
  %29 = call noundef nonnull align 8 dereferenceable(8) ptr @_ZNKSt6vectorIPhSaIS0_EEixEm(ptr noundef nonnull align 8 dereferenceable(24) %26, i64 noundef %28) #3
  %30 = load ptr, ptr %29, align 8, !tbaa !42
  store ptr %30, ptr %7, align 8, !tbaa !272
  call void @llvm.lifetime.start.p0(i64 8, ptr %8) #3
  %31 = getelementptr inbounds nuw %class.anon, ptr %13, i32 0, i32 1
  %32 = load ptr, ptr %31, align 8, !tbaa !516
  %33 = load i32, ptr %5, align 4, !tbaa !31
  %34 = getelementptr inbounds nuw %class.anon, ptr %13, i32 0, i32 2
  %35 = load ptr, ptr %34, align 8, !tbaa !517
  %36 = load i32, ptr %35, align 4, !tbaa !31
  %37 = add i32 %33, %36
  %38 = zext i32 %37 to i64
  %39 = call noundef nonnull align 8 dereferenceable(8) ptr @_ZNSt6vectorIPhSaIS0_EEixEm(ptr noundef nonnull align 8 dereferenceable(24) %32, i64 noundef %38) #3
  %40 = load ptr, ptr %39, align 8, !tbaa !42
  %41 = getelementptr inbounds nuw %class.anon, ptr %13, i32 0, i32 3
  %42 = load ptr, ptr %41, align 8, !tbaa !518
  %43 = load i32, ptr %42, align 4, !tbaa !31
  %44 = getelementptr inbounds nuw %class.anon, ptr %13, i32 0, i32 4
  %45 = load ptr, ptr %44, align 8, !tbaa !519
  %46 = load i32, ptr %45, align 4, !tbaa !31
  %47 = mul i32 %43, %46
  %48 = zext i32 %47 to i64
  %49 = getelementptr inbounds nuw i16, ptr %40, i64 %48
  store ptr %49, ptr %8, align 8, !tbaa !272
  %50 = getelementptr inbounds nuw %class.anon, ptr %13, i32 0, i32 5
  %51 = load ptr, ptr %50, align 8, !tbaa !520
  %52 = load i8, ptr %51, align 1, !tbaa !48
  %53 = zext i8 %52 to i32
  %54 = icmp eq i32 %53, 0
  br i1 %54, label %55, label %67

55:                                               ; preds = %24
  %56 = load ptr, ptr %8, align 8, !tbaa !272
  %57 = load ptr, ptr %7, align 8, !tbaa !272
  %58 = getelementptr inbounds nuw %class.anon, ptr %13, i32 0, i32 6
  %59 = load ptr, ptr %58, align 8, !tbaa !521
  %60 = load i32, ptr %59, align 4, !tbaa !31
  %61 = getelementptr inbounds nuw %class.anon, ptr %13, i32 0, i32 4
  %62 = load ptr, ptr %61, align 8, !tbaa !519
  %63 = load i32, ptr %62, align 4, !tbaa !31
  %64 = mul i32 %60, %63
  %65 = zext i32 %64 to i64
  %66 = mul i64 %65, 2
  call void @llvm.memcpy.p0.p0.i64(ptr align 2 %56, ptr align 2 %57, i64 %66, i1 false)
  br label %206

67:                                               ; preds = %24
  call void @llvm.lifetime.start.p0(i64 4, ptr %9) #3
  store i32 0, ptr %9, align 4, !tbaa !31
  br label %68

68:                                               ; preds = %190, %67
  %69 = load i32, ptr %9, align 4, !tbaa !31
  %70 = getelementptr inbounds nuw %class.anon, ptr %13, i32 0, i32 6
  %71 = load ptr, ptr %70, align 8, !tbaa !521
  %72 = load i32, ptr %71, align 4, !tbaa !31
  %73 = icmp ult i32 %69, %72
  br i1 %73, label %75, label %74

74:                                               ; preds = %68
  store i32 5, ptr %6, align 4
  call void @llvm.lifetime.end.p0(i64 4, ptr %9) #3
  br label %205

75:                                               ; preds = %68
  %76 = load ptr, ptr %7, align 8, !tbaa !272
  %77 = getelementptr inbounds i16, ptr %76, i64 3
  %78 = load i16, ptr %77, align 2, !tbaa !274
  %79 = zext i16 %78 to i32
  %80 = icmp eq i32 %79, 65535
  br i1 %80, label %81, label %89

81:                                               ; preds = %75
  %82 = load ptr, ptr %8, align 8, !tbaa !272
  %83 = load ptr, ptr %7, align 8, !tbaa !272
  %84 = getelementptr inbounds nuw %class.anon, ptr %13, i32 0, i32 4
  %85 = load ptr, ptr %84, align 8, !tbaa !519
  %86 = load i32, ptr %85, align 4, !tbaa !31
  %87 = sext i32 %86 to i64
  %88 = mul i64 %87, 2
  call void @llvm.memcpy.p0.p0.i64(ptr align 2 %82, ptr align 2 %83, i64 %88, i1 false)
  br label %189

89:                                               ; preds = %75
  %90 = load ptr, ptr %7, align 8, !tbaa !272
  %91 = getelementptr inbounds i16, ptr %90, i64 3
  %92 = load i16, ptr %91, align 2, !tbaa !274
  %93 = zext i16 %92 to i32
  %94 = icmp ne i32 %93, 0
  br i1 %94, label %95, label %188

95:                                               ; preds = %89
  %96 = load ptr, ptr %8, align 8, !tbaa !272
  %97 = getelementptr inbounds i16, ptr %96, i64 3
  %98 = load i16, ptr %97, align 2, !tbaa !274
  %99 = zext i16 %98 to i32
  %100 = icmp ne i32 %99, 0
  br i1 %100, label %101, label %179

101:                                              ; preds = %95
  call void @llvm.lifetime.start.p0(i64 4, ptr %10) #3
  %102 = load ptr, ptr %7, align 8, !tbaa !272
  %103 = getelementptr inbounds i16, ptr %102, i64 3
  %104 = load i16, ptr %103, align 2, !tbaa !274
  %105 = zext i16 %104 to i32
  %106 = mul nsw i32 %105, 65535
  store i32 %106, ptr %10, align 4, !tbaa !31
  call void @llvm.lifetime.start.p0(i64 4, ptr %11) #3
  %107 = load ptr, ptr %7, align 8, !tbaa !272
  %108 = getelementptr inbounds i16, ptr %107, i64 3
  %109 = load i16, ptr %108, align 2, !tbaa !274
  %110 = zext i16 %109 to i32
  %111 = sub nsw i32 65535, %110
  %112 = load ptr, ptr %8, align 8, !tbaa !272
  %113 = getelementptr inbounds i16, ptr %112, i64 3
  %114 = load i16, ptr %113, align 2, !tbaa !274
  %115 = zext i16 %114 to i32
  %116 = mul nsw i32 %111, %115
  store i32 %116, ptr %11, align 4, !tbaa !31
  call void @llvm.lifetime.start.p0(i64 4, ptr %12) #3
  %117 = load i32, ptr %10, align 4, !tbaa !31
  %118 = load i32, ptr %11, align 4, !tbaa !31
  %119 = add i32 %117, %118
  store i32 %119, ptr %12, align 4, !tbaa !31
  %120 = load ptr, ptr %7, align 8, !tbaa !272
  %121 = getelementptr inbounds i16, ptr %120, i64 0
  %122 = load i16, ptr %121, align 2, !tbaa !274
  %123 = zext i16 %122 to i32
  %124 = load i32, ptr %10, align 4, !tbaa !31
  %125 = mul i32 %123, %124
  %126 = load ptr, ptr %8, align 8, !tbaa !272
  %127 = getelementptr inbounds i16, ptr %126, i64 0
  %128 = load i16, ptr %127, align 2, !tbaa !274
  %129 = zext i16 %128 to i32
  %130 = load i32, ptr %11, align 4, !tbaa !31
  %131 = mul i32 %129, %130
  %132 = add i32 %125, %131
  %133 = load i32, ptr %12, align 4, !tbaa !31
  %134 = udiv i32 %132, %133
  %135 = trunc i32 %134 to i16
  %136 = load ptr, ptr %8, align 8, !tbaa !272
  %137 = getelementptr inbounds i16, ptr %136, i64 0
  store i16 %135, ptr %137, align 2, !tbaa !274
  %138 = load ptr, ptr %7, align 8, !tbaa !272
  %139 = getelementptr inbounds i16, ptr %138, i64 1
  %140 = load i16, ptr %139, align 2, !tbaa !274
  %141 = zext i16 %140 to i32
  %142 = load i32, ptr %10, align 4, !tbaa !31
  %143 = mul i32 %141, %142
  %144 = load ptr, ptr %8, align 8, !tbaa !272
  %145 = getelementptr inbounds i16, ptr %144, i64 1
  %146 = load i16, ptr %145, align 2, !tbaa !274
  %147 = zext i16 %146 to i32
  %148 = load i32, ptr %11, align 4, !tbaa !31
  %149 = mul i32 %147, %148
  %150 = add i32 %143, %149
  %151 = load i32, ptr %12, align 4, !tbaa !31
  %152 = udiv i32 %150, %151
  %153 = trunc i32 %152 to i16
  %154 = load ptr, ptr %8, align 8, !tbaa !272
  %155 = getelementptr inbounds i16, ptr %154, i64 1
  store i16 %153, ptr %155, align 2, !tbaa !274
  %156 = load ptr, ptr %7, align 8, !tbaa !272
  %157 = getelementptr inbounds i16, ptr %156, i64 2
  %158 = load i16, ptr %157, align 2, !tbaa !274
  %159 = zext i16 %158 to i32
  %160 = load i32, ptr %10, align 4, !tbaa !31
  %161 = mul i32 %159, %160
  %162 = load ptr, ptr %8, align 8, !tbaa !272
  %163 = getelementptr inbounds i16, ptr %162, i64 2
  %164 = load i16, ptr %163, align 2, !tbaa !274
  %165 = zext i16 %164 to i32
  %166 = load i32, ptr %11, align 4, !tbaa !31
  %167 = mul i32 %165, %166
  %168 = add i32 %161, %167
  %169 = load i32, ptr %12, align 4, !tbaa !31
  %170 = udiv i32 %168, %169
  %171 = trunc i32 %170 to i16
  %172 = load ptr, ptr %8, align 8, !tbaa !272
  %173 = getelementptr inbounds i16, ptr %172, i64 2
  store i16 %171, ptr %173, align 2, !tbaa !274
  %174 = load i32, ptr %12, align 4, !tbaa !31
  %175 = udiv i32 %174, 65535
  %176 = trunc i32 %175 to i16
  %177 = load ptr, ptr %8, align 8, !tbaa !272
  %178 = getelementptr inbounds i16, ptr %177, i64 3
  store i16 %176, ptr %178, align 2, !tbaa !274
  call void @llvm.lifetime.end.p0(i64 4, ptr %12) #3
  call void @llvm.lifetime.end.p0(i64 4, ptr %11) #3
  call void @llvm.lifetime.end.p0(i64 4, ptr %10) #3
  br label %187

179:                                              ; preds = %95
  %180 = load ptr, ptr %8, align 8, !tbaa !272
  %181 = load ptr, ptr %7, align 8, !tbaa !272
  %182 = getelementptr inbounds nuw %class.anon, ptr %13, i32 0, i32 4
  %183 = load ptr, ptr %182, align 8, !tbaa !519
  %184 = load i32, ptr %183, align 4, !tbaa !31
  %185 = sext i32 %184 to i64
  %186 = mul i64 %185, 2
  call void @llvm.memcpy.p0.p0.i64(ptr align 2 %180, ptr align 2 %181, i64 %186, i1 false)
  br label %187

187:                                              ; preds = %179, %101
  br label %188

188:                                              ; preds = %187, %89
  br label %189

189:                                              ; preds = %188, %81
  br label %190

190:                                              ; preds = %189
  %191 = load i32, ptr %9, align 4, !tbaa !31
  %192 = add i32 %191, 1
  store i32 %192, ptr %9, align 4, !tbaa !31
  %193 = getelementptr inbounds nuw %class.anon, ptr %13, i32 0, i32 4
  %194 = load ptr, ptr %193, align 8, !tbaa !519
  %195 = load i32, ptr %194, align 4, !tbaa !31
  %196 = load ptr, ptr %7, align 8, !tbaa !272
  %197 = sext i32 %195 to i64
  %198 = getelementptr inbounds i16, ptr %196, i64 %197
  store ptr %198, ptr %7, align 8, !tbaa !272
  %199 = getelementptr inbounds nuw %class.anon, ptr %13, i32 0, i32 4
  %200 = load ptr, ptr %199, align 8, !tbaa !519
  %201 = load i32, ptr %200, align 4, !tbaa !31
  %202 = load ptr, ptr %8, align 8, !tbaa !272
  %203 = sext i32 %201 to i64
  %204 = getelementptr inbounds i16, ptr %202, i64 %203
  store ptr %204, ptr %8, align 8, !tbaa !272
  br label %68, !llvm.loop !522

205:                                              ; preds = %74
  br label %206

206:                                              ; preds = %205, %55
  call void @llvm.lifetime.end.p0(i64 8, ptr %8) #3
  call void @llvm.lifetime.end.p0(i64 8, ptr %7) #3
  br label %207

207:                                              ; preds = %206
  %208 = load i32, ptr %5, align 4, !tbaa !31
  %209 = add nsw i32 %208, 1
  store i32 %209, ptr %5, align 4, !tbaa !31
  br label %17, !llvm.loop !523

210:                                              ; preds = %23
  ret void
}

; Function Attrs: mustprogress nounwind uwtable
define linkonce_odr hidden noundef ptr @_ZNKSt9_Any_data9_M_accessEv(ptr noundef nonnull align 8 dereferenceable(16) %0) #4 comdat align 2 {
  %2 = alloca ptr, align 8
  store ptr %0, ptr %2, align 8, !tbaa !509
  %3 = load ptr, ptr %2, align 8
  %4 = getelementptr inbounds [16 x i8], ptr %3, i64 0, i64 0
  ret ptr %4
}

; Function Attrs: mustprogress uwtable
define internal void @"_ZSt13__invoke_implIvRZN2cv10PngDecoder13compose_frameERSt6vectorIPhSaIS3_EERKS5_hjjjjRNS0_3MatEE3$_0JRKNS0_5RangeEEET_St14__invoke_otherOT0_DpOT1_"(ptr noundef nonnull align 8 dereferenceable(56) %0, ptr noundef nonnull align 4 dereferenceable(8) %1) #5 {
  %3 = alloca ptr, align 8
  %4 = alloca ptr, align 8
  store ptr %0, ptr %3, align 8, !tbaa !49
  store ptr %1, ptr %4, align 8, !tbaa !191
  %5 = load ptr, ptr %3, align 8, !tbaa !49
  %6 = load ptr, ptr %4, align 8, !tbaa !191
  call void @"_ZZN2cv10PngDecoder13compose_frameERSt6vectorIPhSaIS2_EERKS4_hjjjjRNS_3MatEENK3$_0clERKNS_5RangeE"(ptr noundef nonnull align 8 dereferenceable(56) %5, ptr noundef nonnull align 4 dereferenceable(8) %6)
  ret void
}

; Function Attrs: mustprogress nounwind uwtable
define internal noundef nonnull align 8 dereferenceable(8) ptr @"_ZNKSt9_Any_data9_M_accessIPZN2cv10PngDecoder13compose_frameERSt6vectorIPhSaIS4_EERKS6_hjjjjRNS1_3MatEE3$_0EERKT_v"(ptr noundef nonnull align 8 dereferenceable(16) %0) #4 align 2 {
  %2 = alloca ptr, align 8
  store ptr %0, ptr %2, align 8, !tbaa !509
  %3 = load ptr, ptr %2, align 8
  %4 = call noundef ptr @_ZNKSt9_Any_data9_M_accessEv(ptr noundef nonnull align 8 dereferenceable(16) %3) #3
  ret ptr %4
}

; Function Attrs: mustprogress uwtable
define internal void @"_ZSt10__invoke_rIvRZN2cv10PngDecoder13compose_frameERSt6vectorIPhSaIS3_EERKS5_hjjjjRNS0_3MatEE3$_0JRKNS0_5RangeEEENSt9enable_ifIXsr6__and_ISt7is_voidIT_ESt14__is_invocableIT0_JDpT1_EEEE5valueESI_E4typeEOSL_DpOSM_"(ptr noundef nonnull align 8 dereferenceable(56) %0, ptr noundef nonnull align 4 dereferenceable(8) %1) #5 {
  %3 = alloca ptr, align 8
  %4 = alloca ptr, align 8
  store ptr %0, ptr %3, align 8, !tbaa !49
  store ptr %1, ptr %4, align 8, !tbaa !191
  %5 = load ptr, ptr %3, align 8, !tbaa !49
  %6 = load ptr, ptr %4, align 8, !tbaa !191
  call void @"_ZSt13__invoke_implIvRZN2cv10PngDecoder13compose_frameERSt6vectorIPhSaIS3_EERKS5_hjjjjRNS0_3MatEE3$_0JRKNS0_5RangeEEET_St14__invoke_otherOT0_DpOT1_"(ptr noundef nonnull align 8 dereferenceable(56) %5, ptr noundef nonnull align 4 dereferenceable(8) %6)
  ret void
}

; Function Attrs: mustprogress nounwind uwtable
define internal noundef ptr @"_ZNSt14_Function_base13_Base_managerIZN2cv10PngDecoder13compose_frameERSt6vectorIPhSaIS4_EERKS6_hjjjjRNS1_3MatEE3$_0E14_M_get_pointerERKSt9_Any_data"(ptr noundef nonnull align 8 dereferenceable(16) %0) #4 align 2 {
  %2 = alloca ptr, align 8
  store ptr %0, ptr %2, align 8, !tbaa !509
  %3 = load ptr, ptr %2, align 8, !tbaa !509
  %4 = call noundef nonnull align 8 dereferenceable(8) ptr @"_ZNKSt9_Any_data9_M_accessIPZN2cv10PngDecoder13compose_frameERSt6vectorIPhSaIS4_EERKS6_hjjjjRNS1_3MatEE3$_0EERKT_v"(ptr noundef nonnull align 8 dereferenceable(16) %3) #3
  %5 = load ptr, ptr %4, align 8, !tbaa !49
  ret ptr %5
}

; Function Attrs: mustprogress uwtable
define internal void @"_ZNSt17_Function_handlerIFvRKN2cv5RangeEEZNS0_10PngDecoder13compose_frameERSt6vectorIPhSaIS7_EERKS9_hjjjjRNS0_3MatEE3$_0E9_M_invokeERKSt9_Any_dataS3_"(ptr noundef nonnull align 8 dereferenceable(16) %0, ptr noundef nonnull align 4 dereferenceable(8) %1) #5 align 2 {
  %3 = alloca ptr, align 8
  %4 = alloca ptr, align 8
  store ptr %0, ptr %3, align 8, !tbaa !509
  store ptr %1, ptr %4, align 8, !tbaa !191
  %5 = load ptr, ptr %3, align 8, !tbaa !509
  %6 = call noundef ptr @"_ZNSt14_Function_base13_Base_managerIZN2cv10PngDecoder13compose_frameERSt6vectorIPhSaIS4_EERKS6_hjjjjRNS1_3MatEE3$_0E14_M_get_pointerERKSt9_Any_data"(ptr noundef nonnull align 8 dereferenceable(16) %5) #3
  %7 = load ptr, ptr %4, align 8, !tbaa !191
  call void @"_ZSt10__invoke_rIvRZN2cv10PngDecoder13compose_frameERSt6vectorIPhSaIS3_EERKS5_hjjjjRNS0_3MatEE3$_0JRKNS0_5RangeEEENSt9enable_ifIXsr6__and_ISt7is_voidIT_ESt14__is_invocableIT0_JDpT1_EEEE5valueESI_E4typeEOSL_DpOSM_"(ptr noundef nonnull align 8 dereferenceable(56) %6, ptr noundef nonnull align 4 dereferenceable(8) %7)
  ret void
}