; Function Attrs: mustprogress nofree norecurse nosync nounwind memory(readwrite, inaccessiblemem: none) uwtable
define internal void @"_ZNSt17_Function_handlerIFvRKN2cv5RangeEEZNS0_10PngDecoder13compose_frameERSt6vectorIPhSaIS7_EERKS9_hjjjjRNS0_3MatEE3$_0E9_M_invokeERKSt9_Any_dataS3_"(ptr noundef nonnull readonly align 8 captures(none) dereferenceable(16) %0, ptr noundef nonnull readonly align 4 captures(none) dereferenceable(8) %1) #26 align 2 {
  %.val = load ptr, ptr %0, align 8, !tbaa !204
  %3 = load i32, ptr %1, align 4, !tbaa !198
  %4 = getelementptr inbounds nuw i8, ptr %1, i64 4
  %5 = load i32, ptr %4, align 4, !tbaa !200
  %6 = icmp slt i32 %3, %5
  br i1 %6, label %.lr.ph54.i.i.i, label %"_ZSt10__invoke_rIvRZN2cv10PngDecoder13compose_frameERSt6vectorIPhSaIS3_EERKS5_hjjjjRNS0_3MatEE3$_0JRKNS0_5RangeEEENSt9enable_ifIXsr6__and_ISt7is_voidIT_ESt14__is_invocableIT0_JDpT1_EEEE5valueESI_E4typeEOSL_DpOSM_.exit"

.lr.ph54.i.i.i:                                   ; preds = %2
  %7 = getelementptr inbounds nuw i8, ptr %.val, i64 8
  %8 = getelementptr inbounds nuw i8, ptr %.val, i64 16
  %9 = getelementptr inbounds nuw i8, ptr %.val, i64 24
  %10 = getelementptr inbounds nuw i8, ptr %.val, i64 32
  %11 = getelementptr inbounds nuw i8, ptr %.val, i64 40
  %12 = getelementptr inbounds nuw i8, ptr %.val, i64 48
  %13 = sext i32 %3 to i64
  br label %14

14:                                               ; preds = %.loopexit.i.i.i, %.lr.ph54.i.i.i
  %indvars.iv.i.i.i = phi i64 [ %13, %.lr.ph54.i.i.i ], [ %indvars.iv.next.i.i.i, %.loopexit.i.i.i ]
  %15 = load ptr, ptr %.val, align 8, !tbaa !326
  %16 = load ptr, ptr %15, align 8, !tbaa !19
  %17 = getelementptr inbounds nuw ptr, ptr %16, i64 %indvars.iv.i.i.i
  %18 = load ptr, ptr %17, align 8, !tbaa !36
  %19 = load ptr, ptr %7, align 8, !tbaa !328
  %20 = load ptr, ptr %8, align 8, !tbaa !329
  %21 = load i32, ptr %20, align 4, !tbaa !137
  %22 = trunc nsw i64 %indvars.iv.i.i.i to i32
  %23 = add i32 %21, %22
  %24 = zext i32 %23 to i64
  %25 = load ptr, ptr %19, align 8, !tbaa !19
  %26 = getelementptr inbounds nuw ptr, ptr %25, i64 %24
  %27 = load ptr, ptr %26, align 8, !tbaa !36
  %28 = load ptr, ptr %9, align 8, !tbaa !330
  %29 = load i32, ptr %28, align 4, !tbaa !137
  %30 = load ptr, ptr %10, align 8, !tbaa !331
  %31 = load i32, ptr %30, align 4, !tbaa !137
  %32 = mul i32 %31, %29
  %33 = zext i32 %32 to i64
  %34 = getelementptr inbounds nuw i16, ptr %27, i64 %33
  %35 = load ptr, ptr %11, align 8, !tbaa !332
  %36 = load i8, ptr %35, align 1, !tbaa !121
  %37 = icmp eq i8 %36, 0
  %38 = load ptr, ptr %12, align 8, !tbaa !333
  %39 = load i32, ptr %38, align 4, !tbaa !137
  br i1 %37, label %40, label %.preheader.i.i.i

.preheader.i.i.i:                                 ; preds = %14
  %.not.i.i.i = icmp eq i32 %39, 0
  br i1 %.not.i.i.i, label %.loopexit.i.i.i, label %.lr.ph.i.i.i

40:                                               ; preds = %14
  %41 = mul i32 %39, %31
  %42 = zext i32 %41 to i64
  %43 = shl nuw nsw i64 %42, 1
  tail call void @llvm.memcpy.p0.p0.i64(ptr align 2 %34, ptr align 2 %18, i64 %43, i1 false)
  br label %.loopexit.i.i.i

.lr.ph.i.i.i:                                     ; preds = %.preheader.i.i.i, %96
  %44 = phi i32 [ %99, %96 ], [ %31, %.preheader.i.i.i ]
  %.04452.i.i.i = phi ptr [ %101, %96 ], [ %18, %.preheader.i.i.i ]
  %.04551.i.i.i = phi i32 [ %97, %96 ], [ 0, %.preheader.i.i.i ]
  %.04650.i.i.i = phi ptr [ %102, %96 ], [ %34, %.preheader.i.i.i ]
  %45 = getelementptr inbounds nuw i8, ptr %.04452.i.i.i, i64 6
  %46 = load i16, ptr %45, align 2, !tbaa !270
  %47 = zext i16 %46 to i32
  switch i16 %46, label %51 [
    i16 -1, label %48
    i16 0, label %96
  ]

48:                                               ; preds = %.lr.ph.i.i.i
  %49 = sext i32 %44 to i64
  %50 = shl nsw i64 %49, 1
  tail call void @llvm.memcpy.p0.p0.i64(ptr align 2 %.04650.i.i.i, ptr nonnull align 2 %.04452.i.i.i, i64 %50, i1 false)
  br label %96

51:                                               ; preds = %.lr.ph.i.i.i
  %52 = getelementptr inbounds nuw i8, ptr %.04650.i.i.i, i64 6
  %53 = load i16, ptr %52, align 2, !tbaa !270
  %.not49.i.i.i = icmp eq i16 %53, 0
  br i1 %.not49.i.i.i, label %93, label %54

54:                                               ; preds = %51
  %55 = zext i16 %53 to i32
  %56 = mul nuw nsw i32 %47, 65535
  %57 = xor i32 %47, 65535
  %58 = mul nuw nsw i32 %57, %55
  %59 = add nuw i32 %58, %56
  %60 = load i16, ptr %.04452.i.i.i, align 2, !tbaa !270
  %61 = zext i16 %60 to i32
  %62 = mul i32 %56, %61
  %63 = load i16, ptr %.04650.i.i.i, align 2, !tbaa !270
  %64 = zext i16 %63 to i32
  %65 = mul i32 %58, %64
  %66 = add i32 %65, %62
  %67 = udiv i32 %66, %59
  %68 = trunc nuw i32 %67 to i16
  store i16 %68, ptr %.04650.i.i.i, align 2, !tbaa !270
  %69 = getelementptr inbounds nuw i8, ptr %.04452.i.i.i, i64 2
  %70 = load i16, ptr %69, align 2, !tbaa !270
  %71 = zext i16 %70 to i32
  %72 = mul i32 %56, %71
  %73 = getelementptr inbounds nuw i8, ptr %.04650.i.i.i, i64 2
  %74 = load i16, ptr %73, align 2, !tbaa !270
  %75 = zext i16 %74 to i32
  %76 = mul i32 %58, %75
  %77 = add i32 %76, %72
  %78 = udiv i32 %77, %59
  %79 = trunc nuw i32 %78 to i16
  store i16 %79, ptr %73, align 2, !tbaa !270
  %80 = getelementptr inbounds nuw i8, ptr %.04452.i.i.i, i64 4
  %81 = load i16, ptr %80, align 2, !tbaa !270
  %82 = zext i16 %81 to i32
  %83 = mul i32 %56, %82
  %84 = getelementptr inbounds nuw i8, ptr %.04650.i.i.i, i64 4
  %85 = load i16, ptr %84, align 2, !tbaa !270
  %86 = zext i16 %85 to i32
  %87 = mul i32 %58, %86
  %88 = add i32 %87, %83
  %89 = udiv i32 %88, %59
  %90 = trunc nuw i32 %89 to i16
  store i16 %90, ptr %84, align 2, !tbaa !270
  %91 = udiv i32 %59, 65535
  %92 = trunc i32 %91 to i16
  store i16 %92, ptr %52, align 2, !tbaa !270
  br label %96

93:                                               ; preds = %51
  %94 = sext i32 %44 to i64
  %95 = shl nsw i64 %94, 1
  tail call void @llvm.memcpy.p0.p0.i64(ptr nonnull align 2 %.04650.i.i.i, ptr nonnull align 2 %.04452.i.i.i, i64 %95, i1 false)
  br label %96

96:                                               ; preds = %93, %54, %48, %.lr.ph.i.i.i
  %97 = add nuw i32 %.04551.i.i.i, 1
  %98 = load ptr, ptr %10, align 8, !tbaa !331
  %99 = load i32, ptr %98, align 4, !tbaa !137
  %100 = sext i32 %99 to i64
  %101 = getelementptr inbounds i16, ptr %.04452.i.i.i, i64 %100
  %102 = getelementptr inbounds i16, ptr %.04650.i.i.i, i64 %100
  %103 = load ptr, ptr %12, align 8, !tbaa !333
  %104 = load i32, ptr %103, align 4, !tbaa !137
  %105 = icmp ult i32 %97, %104
  br i1 %105, label %.lr.ph.i.i.i, label %.loopexit.i.i.i, !llvm.loop !334

.loopexit.i.i.i:                                  ; preds = %96, %40, %.preheader.i.i.i
  %indvars.iv.next.i.i.i = add nsw i64 %indvars.iv.i.i.i, 1
  %106 = load i32, ptr %4, align 4, !tbaa !200
  %107 = sext i32 %106 to i64
  %108 = icmp slt i64 %indvars.iv.next.i.i.i, %107
  br i1 %108, label %14, label %"_ZSt10__invoke_rIvRZN2cv10PngDecoder13compose_frameERSt6vectorIPhSaIS3_EERKS5_hjjjjRNS0_3MatEE3$_0JRKNS0_5RangeEEENSt9enable_ifIXsr6__and_ISt7is_voidIT_ESt14__is_invocableIT0_JDpT1_EEEE5valueESI_E4typeEOSL_DpOSM_.exit", !llvm.loop !335

"_ZSt10__invoke_rIvRZN2cv10PngDecoder13compose_frameERSt6vectorIPhSaIS3_EERKS5_hjjjjRNS0_3MatEE3$_0JRKNS0_5RangeEEENSt9enable_ifIXsr6__and_ISt7is_voidIT_ESt14__is_invocableIT0_JDpT1_EEEE5valueESI_E4typeEOSL_DpOSM_.exit": ; preds = %.loopexit.i.i.i, %2
  ret void
}